
test02_7seg.elf:     file format elf32-avr

Sections:
Idx Name          Size      VMA       LMA       File off  Algn
  0 .data         00000012  00800100  0000029e  00000332  2**0
                  CONTENTS, ALLOC, LOAD, DATA
  1 .text         0000029e  00000000  00000000  00000094  2**1
                  CONTENTS, ALLOC, LOAD, READONLY, CODE
  2 .bss          00000005  00800112  00800112  00000344  2**0
                  ALLOC
  3 .comment      00000030  00000000  00000000  00000344  2**0
                  CONTENTS, READONLY
  4 .note.gnu.avr.deviceinfo 0000003c  00000000  00000000  00000374  2**2
                  CONTENTS, READONLY
  5 .debug_aranges 00000038  00000000  00000000  000003b0  2**0
                  CONTENTS, READONLY, DEBUGGING
  6 .debug_info   00000a84  00000000  00000000  000003e8  2**0
                  CONTENTS, READONLY, DEBUGGING
  7 .debug_abbrev 000008df  00000000  00000000  00000e6c  2**0
                  CONTENTS, READONLY, DEBUGGING
  8 .debug_line   000003d2  00000000  00000000  0000174b  2**0
                  CONTENTS, READONLY, DEBUGGING
  9 .debug_frame  00000078  00000000  00000000  00001b20  2**2
                  CONTENTS, READONLY, DEBUGGING
 10 .debug_str    0000042d  00000000  00000000  00001b98  2**0
                  CONTENTS, READONLY, DEBUGGING
 11 .debug_loc    00000306  00000000  00000000  00001fc5  2**0
                  CONTENTS, READONLY, DEBUGGING
 12 .debug_ranges 00000028  00000000  00000000  000022cb  2**0
                  CONTENTS, READONLY, DEBUGGING

Disassembly of section .text:

00000000 <__vectors>:
   0:	45 c0       	rjmp	.+138    	; 0x8c <__ctors_end>
   2:	00 00       	nop
   4:	60 c0       	rjmp	.+192    	; 0xc6 <__bad_interrupt>
   6:	00 00       	nop
   8:	5e c0       	rjmp	.+188    	; 0xc6 <__bad_interrupt>
   a:	00 00       	nop
   c:	5c c0       	rjmp	.+184    	; 0xc6 <__bad_interrupt>
   e:	00 00       	nop
  10:	5a c0       	rjmp	.+180    	; 0xc6 <__bad_interrupt>
  12:	00 00       	nop
  14:	58 c0       	rjmp	.+176    	; 0xc6 <__bad_interrupt>
  16:	00 00       	nop
  18:	56 c0       	rjmp	.+172    	; 0xc6 <__bad_interrupt>
  1a:	00 00       	nop
  1c:	54 c0       	rjmp	.+168    	; 0xc6 <__bad_interrupt>
  1e:	00 00       	nop
  20:	52 c0       	rjmp	.+164    	; 0xc6 <__bad_interrupt>
  22:	00 00       	nop
  24:	50 c0       	rjmp	.+160    	; 0xc6 <__bad_interrupt>
  26:	00 00       	nop
  28:	4e c0       	rjmp	.+156    	; 0xc6 <__bad_interrupt>
  2a:	00 00       	nop
  2c:	4c c0       	rjmp	.+152    	; 0xc6 <__bad_interrupt>
  2e:	00 00       	nop
  30:	4a c0       	rjmp	.+148    	; 0xc6 <__bad_interrupt>
  32:	00 00       	nop
  34:	48 c0       	rjmp	.+144    	; 0xc6 <__bad_interrupt>
  36:	00 00       	nop
  38:	46 c0       	rjmp	.+140    	; 0xc6 <__bad_interrupt>
  3a:	00 00       	nop
  3c:	44 c0       	rjmp	.+136    	; 0xc6 <__bad_interrupt>
  3e:	00 00       	nop
  40:	42 c0       	rjmp	.+132    	; 0xc6 <__bad_interrupt>
  42:	00 00       	nop
  44:	40 c0       	rjmp	.+128    	; 0xc6 <__bad_interrupt>
  46:	00 00       	nop
  48:	3e c0       	rjmp	.+124    	; 0xc6 <__bad_interrupt>
  4a:	00 00       	nop
  4c:	3c c0       	rjmp	.+120    	; 0xc6 <__bad_interrupt>
  4e:	00 00       	nop
  50:	3a c0       	rjmp	.+116    	; 0xc6 <__bad_interrupt>
  52:	00 00       	nop
  54:	38 c0       	rjmp	.+112    	; 0xc6 <__bad_interrupt>
  56:	00 00       	nop
  58:	36 c0       	rjmp	.+108    	; 0xc6 <__bad_interrupt>
  5a:	00 00       	nop
  5c:	34 c0       	rjmp	.+104    	; 0xc6 <__bad_interrupt>
  5e:	00 00       	nop
  60:	32 c0       	rjmp	.+100    	; 0xc6 <__bad_interrupt>
  62:	00 00       	nop
  64:	30 c0       	rjmp	.+96     	; 0xc6 <__bad_interrupt>
  66:	00 00       	nop
  68:	2e c0       	rjmp	.+92     	; 0xc6 <__bad_interrupt>
  6a:	00 00       	nop
  6c:	2c c0       	rjmp	.+88     	; 0xc6 <__bad_interrupt>
  6e:	00 00       	nop
  70:	2a c0       	rjmp	.+84     	; 0xc6 <__bad_interrupt>
  72:	00 00       	nop
  74:	28 c0       	rjmp	.+80     	; 0xc6 <__bad_interrupt>
  76:	00 00       	nop
  78:	26 c0       	rjmp	.+76     	; 0xc6 <__bad_interrupt>
  7a:	00 00       	nop
  7c:	24 c0       	rjmp	.+72     	; 0xc6 <__bad_interrupt>
  7e:	00 00       	nop
  80:	22 c0       	rjmp	.+68     	; 0xc6 <__bad_interrupt>
  82:	00 00       	nop
  84:	20 c0       	rjmp	.+64     	; 0xc6 <__bad_interrupt>
  86:	00 00       	nop
  88:	1e c0       	rjmp	.+60     	; 0xc6 <__bad_interrupt>
	...

0000008c <__ctors_end>:
  8c:	11 24       	eor	r1, r1
  8e:	1f be       	out	0x3f, r1	; 63
  90:	cf ef       	ldi	r28, 0xFF	; 255
  92:	d0 e1       	ldi	r29, 0x10	; 16
  94:	de bf       	out	0x3e, r29	; 62
  96:	cd bf       	out	0x3d, r28	; 61

00000098 <__do_copy_data>:
  98:	11 e0       	ldi	r17, 0x01	; 1
  9a:	a0 e0       	ldi	r26, 0x00	; 0
  9c:	b1 e0       	ldi	r27, 0x01	; 1
  9e:	ee e9       	ldi	r30, 0x9E	; 158
  a0:	f2 e0       	ldi	r31, 0x02	; 2
  a2:	00 e0       	ldi	r16, 0x00	; 0
  a4:	0b bf       	out	0x3b, r16	; 59
  a6:	02 c0       	rjmp	.+4      	; 0xac <__do_copy_data+0x14>
  a8:	07 90       	elpm	r0, Z+
  aa:	0d 92       	st	X+, r0
  ac:	a2 31       	cpi	r26, 0x12	; 18
  ae:	b1 07       	cpc	r27, r17
  b0:	d9 f7       	brne	.-10     	; 0xa8 <__do_copy_data+0x10>

000000b2 <__do_clear_bss>:
  b2:	21 e0       	ldi	r18, 0x01	; 1
  b4:	a2 e1       	ldi	r26, 0x12	; 18
  b6:	b1 e0       	ldi	r27, 0x01	; 1
  b8:	01 c0       	rjmp	.+2      	; 0xbc <.do_clear_bss_start>

000000ba <.do_clear_bss_loop>:
  ba:	1d 92       	st	X+, r1

000000bc <.do_clear_bss_start>:
  bc:	a7 31       	cpi	r26, 0x17	; 23
  be:	b2 07       	cpc	r27, r18
  c0:	e1 f7       	brne	.-8      	; 0xba <.do_clear_bss_loop>
  c2:	99 d0       	rcall	.+306    	; 0x1f6 <main>
  c4:	ea c0       	rjmp	.+468    	; 0x29a <_exit>

000000c6 <__bad_interrupt>:
  c6:	9c cf       	rjmp	.-200    	; 0x0 <__vectors>

000000c8 <seg>:
	
}*/

void seg(int sel, uint8_t c)
{
	PORTF |= 0x0F;
  c8:	e2 e6       	ldi	r30, 0x62	; 98
  ca:	f0 e0       	ldi	r31, 0x00	; 0
  cc:	20 81       	ld	r18, Z
  ce:	2f 60       	ori	r18, 0x0F	; 15
  d0:	20 83       	st	Z, r18
	PORTF &= ~(1 <<(3-sel));
  d2:	20 81       	ld	r18, Z
  d4:	43 e0       	ldi	r20, 0x03	; 3
  d6:	50 e0       	ldi	r21, 0x00	; 0
  d8:	48 1b       	sub	r20, r24
  da:	59 0b       	sbc	r21, r25
  dc:	81 e0       	ldi	r24, 0x01	; 1
  de:	90 e0       	ldi	r25, 0x00	; 0
  e0:	02 c0       	rjmp	.+4      	; 0xe6 <seg+0x1e>
  e2:	88 0f       	add	r24, r24
  e4:	99 1f       	adc	r25, r25
  e6:	4a 95       	dec	r20
  e8:	e2 f7       	brpl	.-8      	; 0xe2 <seg+0x1a>
  ea:	80 95       	com	r24
  ec:	82 23       	and	r24, r18
  ee:	80 83       	st	Z, r24
	PORTD = c; // 숫자 데이터 출력
  f0:	62 bb       	out	0x12, r22	; 18
	#else
		//round up by default
		__ticks_dc = (uint32_t)(ceil(fabs(__tmp)));
	#endif

	__builtin_avr_delay_cycles(__ticks_dc);
  f2:	8f e9       	ldi	r24, 0x9F	; 159
  f4:	9f e0       	ldi	r25, 0x0F	; 15
  f6:	01 97       	sbiw	r24, 0x01	; 1
  f8:	f1 f7       	brne	.-4      	; 0xf6 <seg+0x2e>
  fa:	00 c0       	rjmp	.+0      	; 0xfc <seg+0x34>
  fc:	00 00       	nop
  fe:	08 95       	ret

00000100 <FND_4>:
	_delay_ms(1); // 0.01초 간격으로 전환
}

void FND_4(char *inf) // segment Image 배열
{
 100:	0f 93       	push	r16
 102:	1f 93       	push	r17
 104:	cf 93       	push	r28
 106:	df 93       	push	r29
 108:	8c 01       	movw	r16, r24
	for(int i = 0; i < 4; i++)
 10a:	c0 e0       	ldi	r28, 0x00	; 0
 10c:	d0 e0       	ldi	r29, 0x00	; 0
 10e:	07 c0       	rjmp	.+14     	; 0x11e <FND_4+0x1e>
	{
		seg(i, *(inf+i));
 110:	f8 01       	movw	r30, r16
 112:	ec 0f       	add	r30, r28
 114:	fd 1f       	adc	r31, r29
 116:	60 81       	ld	r22, Z
 118:	ce 01       	movw	r24, r28
 11a:	d6 df       	rcall	.-84     	; 0xc8 <seg>
	_delay_ms(1); // 0.01초 간격으로 전환
}

void FND_4(char *inf) // segment Image 배열
{
	for(int i = 0; i < 4; i++)
 11c:	21 96       	adiw	r28, 0x01	; 1
 11e:	c4 30       	cpi	r28, 0x04	; 4
 120:	d1 05       	cpc	r29, r1
 122:	b4 f3       	brlt	.-20     	; 0x110 <FND_4+0x10>
	{
		seg(i, *(inf+i));
		//seg(i, inf[i]);
	}
}
 124:	df 91       	pop	r29
 126:	cf 91       	pop	r28
 128:	1f 91       	pop	r17
 12a:	0f 91       	pop	r16
 12c:	08 95       	ret

0000012e <Trans>:

char* Trans(unsigned long num) // 10진 정수 ==>16진수 문자열 : 56506 ==> 0xDCBA // 문자열 다룰시 안전영역 고려, 정적변수에 넣어주는게 좋음
                     //          ==>16진수 segement Image 배열
					 // int가 2byte여서 0x8000이 되면 범위를 넘어가서 unsigned long을 사용해야함
{
 12e:	0f 93       	push	r16
 130:	1f 93       	push	r17
 132:	cf 93       	push	r28
	int n1 = num % 0x10;               // A (10) : 문자가 아닌 숫자
 134:	db 01       	movw	r26, r22
 136:	af 70       	andi	r26, 0x0F	; 15
 138:	bb 27       	eor	r27, r27
	int n2 = (num / 0x10) %16;         // B (11)
 13a:	8b 01       	movw	r16, r22
 13c:	9c 01       	movw	r18, r24
 13e:	68 94       	set
 140:	13 f8       	bld	r1, 3
 142:	36 95       	lsr	r19
 144:	27 95       	ror	r18
 146:	17 95       	ror	r17
 148:	07 95       	ror	r16
 14a:	16 94       	lsr	r1
 14c:	d1 f7       	brne	.-12     	; 0x142 <Trans+0x14>
 14e:	f8 01       	movw	r30, r16
 150:	ef 70       	andi	r30, 0x0F	; 15
 152:	ff 27       	eor	r31, r31
	int n3 = (num / 0x100) %16;         // C (12)
 154:	07 2f       	mov	r16, r23
 156:	18 2f       	mov	r17, r24
 158:	29 2f       	mov	r18, r25
 15a:	33 27       	eor	r19, r19
 15c:	a8 01       	movw	r20, r16
 15e:	4f 70       	andi	r20, 0x0F	; 15
 160:	55 27       	eor	r21, r21
	int n4 = (num / 0x1000);           // D (13)
 162:	8b 01       	movw	r16, r22
 164:	9c 01       	movw	r18, r24
 166:	0f 2e       	mov	r0, r31
 168:	fc e0       	ldi	r31, 0x0C	; 12
 16a:	36 95       	lsr	r19
 16c:	27 95       	ror	r18
 16e:	17 95       	ror	r17
 170:	07 95       	ror	r16
 172:	fa 95       	dec	r31
 174:	d1 f7       	brne	.-12     	; 0x16a <Trans+0x3c>
 176:	f0 2d       	mov	r31, r0
 178:	98 01       	movw	r18, r16
	if(!(num / 0x1000))
 17a:	61 15       	cp	r22, r1
 17c:	c0 e1       	ldi	r28, 0x10	; 16
 17e:	7c 07       	cpc	r23, r28
 180:	81 05       	cpc	r24, r1
 182:	91 05       	cpc	r25, r1
 184:	c8 f4       	brcc	.+50     	; 0x1b8 <Trans+0x8a>
	{
		n4 = 16;
		if(!(num / 0x100))
 186:	6f 3f       	cpi	r22, 0xFF	; 255
 188:	71 05       	cpc	r23, r1
 18a:	81 05       	cpc	r24, r1
 18c:	91 05       	cpc	r25, r1
 18e:	09 f0       	breq	.+2      	; 0x192 <Trans+0x64>
 190:	50 f4       	brcc	.+20     	; 0x1a6 <Trans+0x78>
		{
			n3 =16;
			if(!(num / 0x10)) n2 = 16;
 192:	60 31       	cpi	r22, 0x10	; 16
 194:	71 05       	cpc	r23, r1
 196:	81 05       	cpc	r24, r1
 198:	91 05       	cpc	r25, r1
 19a:	40 f0       	brcs	.+16     	; 0x1ac <Trans+0x7e>
	int n2 = (num / 0x10) %16;         // B (11)
	int n3 = (num / 0x100) %16;         // C (12)
	int n4 = (num / 0x1000);           // D (13)
	if(!(num / 0x1000))
	{
		n4 = 16;
 19c:	20 e1       	ldi	r18, 0x10	; 16
 19e:	30 e0       	ldi	r19, 0x00	; 0
		if(!(num / 0x100))
		{
			n3 =16;
 1a0:	40 e1       	ldi	r20, 0x10	; 16
 1a2:	50 e0       	ldi	r21, 0x00	; 0
 1a4:	09 c0       	rjmp	.+18     	; 0x1b8 <Trans+0x8a>
	int n2 = (num / 0x10) %16;         // B (11)
	int n3 = (num / 0x100) %16;         // C (12)
	int n4 = (num / 0x1000);           // D (13)
	if(!(num / 0x1000))
	{
		n4 = 16;
 1a6:	20 e1       	ldi	r18, 0x10	; 16
 1a8:	30 e0       	ldi	r19, 0x00	; 0
 1aa:	06 c0       	rjmp	.+12     	; 0x1b8 <Trans+0x8a>
 1ac:	20 e1       	ldi	r18, 0x10	; 16
 1ae:	30 e0       	ldi	r19, 0x00	; 0
		if(!(num / 0x100))
		{
			n3 =16;
 1b0:	40 e1       	ldi	r20, 0x10	; 16
 1b2:	50 e0       	ldi	r21, 0x00	; 0
			if(!(num / 0x10)) n2 = 16;
 1b4:	e0 e1       	ldi	r30, 0x10	; 16
 1b6:	f0 e0       	ldi	r31, 0x00	; 0
		}
	}
	
	arr[0] = digit[n1]; // char : 8bit
 1b8:	a0 50       	subi	r26, 0x00	; 0
 1ba:	bf 4f       	sbci	r27, 0xFF	; 255
 1bc:	8c 91       	ld	r24, X
 1be:	a2 e1       	ldi	r26, 0x12	; 18
 1c0:	b1 e0       	ldi	r27, 0x01	; 1
 1c2:	8c 93       	st	X, r24
	arr[1] = digit[n2];
 1c4:	e0 50       	subi	r30, 0x00	; 0
 1c6:	ff 4f       	sbci	r31, 0xFF	; 255
 1c8:	80 81       	ld	r24, Z
 1ca:	11 96       	adiw	r26, 0x01	; 1
 1cc:	8c 93       	st	X, r24
 1ce:	11 97       	sbiw	r26, 0x01	; 1
	arr[2] = digit[n3];
 1d0:	fa 01       	movw	r30, r20
 1d2:	e0 50       	subi	r30, 0x00	; 0
 1d4:	ff 4f       	sbci	r31, 0xFF	; 255
 1d6:	80 81       	ld	r24, Z
 1d8:	12 96       	adiw	r26, 0x02	; 2
 1da:	8c 93       	st	X, r24
 1dc:	12 97       	sbiw	r26, 0x02	; 2
	arr[3] = digit[n4];
 1de:	f9 01       	movw	r30, r18
 1e0:	e0 50       	subi	r30, 0x00	; 0
 1e2:	ff 4f       	sbci	r31, 0xFF	; 255
 1e4:	80 81       	ld	r24, Z
 1e6:	13 96       	adiw	r26, 0x03	; 3
 1e8:	8c 93       	st	X, r24
 1ea:	13 97       	sbiw	r26, 0x03	; 3
	
	//FND_4(arr);
	return arr;
}
 1ec:	cd 01       	movw	r24, r26
 1ee:	cf 91       	pop	r28
 1f0:	1f 91       	pop	r17
 1f2:	0f 91       	pop	r16
 1f4:	08 95       	ret

000001f6 <main>:
    /* Replace with your application code */
	unsigned long j = 0; // int가 2byte여서 0x8000이 되면 범위를 넘어가서 unsigned long을 사용해야함
	int mode = 0;
	//int count = 0;
	//int d[4];
	DDRB &= ~0x01;
 1f6:	87 b3       	in	r24, 0x17	; 23
 1f8:	8e 7f       	andi	r24, 0xFE	; 254
 1fa:	87 bb       	out	0x17, r24	; 23
	DDRD = 0xFF; // 세그먼트 
 1fc:	8f ef       	ldi	r24, 0xFF	; 255
 1fe:	81 bb       	out	0x11, r24	; 17
	DDRF = 0x0F; // 자릿수 선택 핀 4개를 출력으로 설정
 200:	8f e0       	ldi	r24, 0x0F	; 15
 202:	80 93 61 00 	sts	0x0061, r24	; 0x800061 <__TEXT_REGION_LENGTH__+0x7e0061>

int main(void)
{
    /* Replace with your application code */
	unsigned long j = 0; // int가 2byte여서 0x8000이 되면 범위를 넘어가서 unsigned long을 사용해야함
	int mode = 0;
 206:	c0 e0       	ldi	r28, 0x00	; 0
 208:	d0 e0       	ldi	r29, 0x00	; 0
}

int main(void)
{
    /* Replace with your application code */
	unsigned long j = 0; // int가 2byte여서 0x8000이 되면 범위를 넘어가서 unsigned long을 사용해야함
 20a:	c1 2c       	mov	r12, r1
 20c:	d1 2c       	mov	r13, r1
 20e:	76 01       	movw	r14, r12
 210:	05 c0       	rjmp	.+10     	; 0x21c <main+0x26>
		case 2:
		FND_4(Trans(j));
		break;
		
		default:
		mode = 0;
 212:	c0 e0       	ldi	r28, 0x00	; 0
 214:	d0 e0       	ldi	r29, 0x00	; 0
		j = 0;
 216:	c1 2c       	mov	r12, r1
 218:	d1 2c       	mov	r13, r1
 21a:	76 01       	movw	r14, r12
			
			default:
			mode = 0;
			count = 0;
		}*/
		if(!(PINB & 0x01) == 1)
 21c:	b0 99       	sbic	0x16, 0	; 22
 21e:	12 c0       	rjmp	.+36     	; 0x244 <main+0x4e>
 220:	2f ef       	ldi	r18, 0xFF	; 255
 222:	85 ea       	ldi	r24, 0xA5	; 165
 224:	9e e0       	ldi	r25, 0x0E	; 14
 226:	21 50       	subi	r18, 0x01	; 1
 228:	80 40       	sbci	r24, 0x00	; 0
 22a:	90 40       	sbci	r25, 0x00	; 0
 22c:	e1 f7       	brne	.-8      	; 0x226 <main+0x30>
 22e:	00 c0       	rjmp	.+0      	; 0x230 <main+0x3a>
 230:	00 00       	nop
		{
			_delay_ms(300);
			mode++;
 232:	21 96       	adiw	r28, 0x01	; 1
			if(mode >= 3) 
 234:	c3 30       	cpi	r28, 0x03	; 3
 236:	d1 05       	cpc	r29, r1
 238:	2c f0       	brlt	.+10     	; 0x244 <main+0x4e>
			{
				mode = 0;
 23a:	c0 e0       	ldi	r28, 0x00	; 0
 23c:	d0 e0       	ldi	r29, 0x00	; 0
				j = 0;
 23e:	c1 2c       	mov	r12, r1
 240:	d1 2c       	mov	r13, r1
 242:	76 01       	movw	r14, r12
			}
		}
		switch (mode)
 244:	c1 30       	cpi	r28, 0x01	; 1
 246:	d1 05       	cpc	r29, r1
 248:	69 f0       	breq	.+26     	; 0x264 <main+0x6e>
 24a:	c2 30       	cpi	r28, 0x02	; 2
 24c:	d1 05       	cpc	r29, r1
 24e:	01 f1       	breq	.+64     	; 0x290 <main+0x9a>
 250:	20 97       	sbiw	r28, 0x00	; 0
 252:	f9 f6       	brne	.-66     	; 0x212 <main+0x1c>
		{
		case 0:
		PORTF &= ~ 0x0F;
 254:	e2 e6       	ldi	r30, 0x62	; 98
 256:	f0 e0       	ldi	r31, 0x00	; 0
 258:	80 81       	ld	r24, Z
 25a:	80 7f       	andi	r24, 0xF0	; 240
 25c:	80 83       	st	Z, r24
		PORTD = 0x40;
 25e:	80 e4       	ldi	r24, 0x40	; 64
 260:	82 bb       	out	0x12, r24	; 18
		break;
 262:	dc cf       	rjmp	.-72     	; 0x21c <main+0x26>
		
		case 1:
		if(j >= 0x10000) j = 0;
 264:	c1 14       	cp	r12, r1
 266:	d1 04       	cpc	r13, r1
 268:	21 e0       	ldi	r18, 0x01	; 1
 26a:	e2 06       	cpc	r14, r18
 26c:	f1 04       	cpc	r15, r1
 26e:	18 f4       	brcc	.+6      	; 0x276 <main+0x80>
 270:	c7 01       	movw	r24, r14
 272:	b6 01       	movw	r22, r12
 274:	03 c0       	rjmp	.+6      	; 0x27c <main+0x86>
 276:	60 e0       	ldi	r22, 0x00	; 0
 278:	70 e0       	ldi	r23, 0x00	; 0
 27a:	cb 01       	movw	r24, r22
		FND_4(Trans(j++));
 27c:	6b 01       	movw	r12, r22
 27e:	7c 01       	movw	r14, r24
 280:	2f ef       	ldi	r18, 0xFF	; 255
 282:	c2 1a       	sub	r12, r18
 284:	d2 0a       	sbc	r13, r18
 286:	e2 0a       	sbc	r14, r18
 288:	f2 0a       	sbc	r15, r18
 28a:	51 df       	rcall	.-350    	; 0x12e <Trans>
 28c:	39 df       	rcall	.-398    	; 0x100 <FND_4>
		break;
 28e:	c6 cf       	rjmp	.-116    	; 0x21c <main+0x26>
		
		case 2:
		FND_4(Trans(j));
 290:	c7 01       	movw	r24, r14
 292:	b6 01       	movw	r22, r12
 294:	4c df       	rcall	.-360    	; 0x12e <Trans>
 296:	34 df       	rcall	.-408    	; 0x100 <FND_4>
		break;
 298:	c1 cf       	rjmp	.-126    	; 0x21c <main+0x26>

0000029a <_exit>:
 29a:	f8 94       	cli

0000029c <__stop_program>:
 29c:	ff cf       	rjmp	.-2      	; 0x29c <__stop_program>
